target datalayout = "e-m:e-p270:32:32-p271:32:32-p272:64:64-i64:64-i128:128-f80:128-n8:16:32:64-S128"
target triple = "x86_64-pc-linux-gnu"

%struct.mbedtls_asn1_buf = type { i32, i64, ptr }
%struct.mbedtls_asn1_named_data = type { %struct.mbedtls_asn1_buf, %struct.mbedtls_asn1_buf, ptr, i8 }
%struct.mbedtls_pkcs7_signer_info = type { i32, %struct.mbedtls_asn1_buf, %struct.mbedtls_asn1_named_data, %struct.mbedtls_asn1_buf, %struct.mbedtls_asn1_buf, %struct.mbedtls_asn1_buf, %struct.mbedtls_asn1_buf, ptr }

@.str = private unnamed_addr constant [119 x i8] c"generated/home/dtcxzyw/WorkSpace/Projects/compilers/llvm-opt-benchmark/bench/lief/bench_build/mbed_src/library/pkcs7.c\00", align 1

; Function Attrs: inlinehint nounwind uwtable
define internal i32 @mbedtls_error_add(i32 noundef %0, i32 noundef %1, ptr noundef %2, i32 noundef %3) #6 {
  %5 = alloca i32, align 4
  %6 = alloca i32, align 4
  %7 = alloca ptr, align 8
  %8 = alloca i32, align 4
  store i32 %0, ptr %5, align 4, !tbaa !12
  store i32 %1, ptr %6, align 4, !tbaa !12
  store ptr %2, ptr %7, align 8, !tbaa !8
  store i32 %3, ptr %8, align 4, !tbaa !12
  %9 = load i32, ptr %5, align 4, !tbaa !12
  %10 = load i32, ptr %6, align 4, !tbaa !12
  %11 = add nsw i32 %9, %10
  ret i32 %11
}

; Function Attrs: nounwind uwtable
define internal void @pkcs7_free_signer_info(ptr noundef %0) #0 {
  %2 = alloca ptr, align 8
  %3 = alloca ptr, align 8
  %4 = alloca ptr, align 8
  %5 = alloca i32, align 4
  store ptr %0, ptr %2, align 8, !tbaa !48
  call void @llvm.lifetime.start.p0(i64 8, ptr %3) #9
  call void @llvm.lifetime.start.p0(i64 8, ptr %4) #9
  %6 = load ptr, ptr %2, align 8, !tbaa !48
  %7 = icmp eq ptr %6, null
  br i1 %7, label %8, label %9

8:                                                ; preds = %1
  store i32 1, ptr %5, align 4
  br label %27

9:                                                ; preds = %1
  %10 = load ptr, ptr %2, align 8, !tbaa !48
  %11 = getelementptr inbounds nuw %struct.mbedtls_pkcs7_signer_info, ptr %10, i32 0, i32 2
  %12 = getelementptr inbounds nuw %struct.mbedtls_asn1_named_data, ptr %11, i32 0, i32 2
  %13 = load ptr, ptr %12, align 8, !tbaa !62
  store ptr %13, ptr %3, align 8, !tbaa !63
  br label %14

14:                                               ; preds = %17, %9
  %15 = load ptr, ptr %3, align 8, !tbaa !63
  %16 = icmp ne ptr %15, null
  br i1 %16, label %17, label %23

17:                                               ; preds = %14
  %18 = load ptr, ptr %3, align 8, !tbaa !63
  store ptr %18, ptr %4, align 8, !tbaa !63
  %19 = load ptr, ptr %3, align 8, !tbaa !63
  %20 = getelementptr inbounds nuw %struct.mbedtls_asn1_named_data, ptr %19, i32 0, i32 2
  %21 = load ptr, ptr %20, align 8, !tbaa !64
  store ptr %21, ptr %3, align 8, !tbaa !63
  %22 = load ptr, ptr %4, align 8, !tbaa !63
  call void @free(ptr noundef %22) #9
  br label %14, !llvm.loop !65

23:                                               ; preds = %14
  %24 = load ptr, ptr %2, align 8, !tbaa !48
  %25 = getelementptr inbounds nuw %struct.mbedtls_pkcs7_signer_info, ptr %24, i32 0, i32 2
  %26 = getelementptr inbounds nuw %struct.mbedtls_asn1_named_data, ptr %25, i32 0, i32 2
  store ptr null, ptr %26, align 8, !tbaa !62
  store i32 0, ptr %5, align 4
  br label %27

27:                                               ; preds = %23, %8
  call void @llvm.lifetime.end.p0(i64 8, ptr %4) #9
  call void @llvm.lifetime.end.p0(i64 8, ptr %3) #9
  %28 = load i32, ptr %5, align 4
  switch i32 %28, label %30 [
    i32 0, label %29
    i32 1, label %29
  ]

29:                                               ; preds = %27, %27
  ret void

30:                                               ; preds = %27
  unreachable
}

; Function Attrs: nounwind uwtable
define internal i32 @pkcs7_get_digest_algorithm(ptr noundef %0, ptr noundef %1, ptr noundef %2) #0 {
  %4 = alloca ptr, align 8
  %5 = alloca ptr, align 8
  %6 = alloca ptr, align 8
  %7 = alloca i32, align 4
  store ptr %0, ptr %4, align 8, !tbaa !35
  store ptr %1, ptr %5, align 8, !tbaa !8
  store ptr %2, ptr %6, align 8, !tbaa !68
  call void @llvm.lifetime.start.p0(i64 4, ptr %7) #9
  store i32 -110, ptr %7, align 4, !tbaa !12
  %8 = load ptr, ptr %4, align 8, !tbaa !35
  %9 = load ptr, ptr %5, align 8, !tbaa !8
  %10 = load ptr, ptr %6, align 8, !tbaa !68
  %11 = call i32 @mbedtls_asn1_get_alg_null(ptr noundef %8, ptr noundef %9, ptr noundef %10)
  store i32 %11, ptr %7, align 4, !tbaa !12
  %12 = icmp ne i32 %11, 0
  br i1 %12, label %13, label %16

13:                                               ; preds = %3
  %14 = load i32, ptr %7, align 4, !tbaa !12
  %15 = call i32 @mbedtls_error_add(i32 noundef -21760, i32 noundef %14, ptr noundef @.str, i32 noundef 124)
  store i32 %15, ptr %7, align 4, !tbaa !12
  br label %16

16:                                               ; preds = %13, %3
  %17 = load i32, ptr %7, align 4, !tbaa !12
  call void @llvm.lifetime.end.p0(i64 4, ptr %7) #9
  ret i32 %17
}

; Function Attrs: nounwind uwtable
define internal i32 @pkcs7_get_version(ptr noundef %0, ptr noundef %1, ptr noundef %2) #0 {
  %4 = alloca ptr, align 8
  %5 = alloca ptr, align 8
  %6 = alloca ptr, align 8
  %7 = alloca i32, align 4
  store ptr %0, ptr %4, align 8, !tbaa !35
  store ptr %1, ptr %5, align 8, !tbaa !8
  store ptr %2, ptr %6, align 8, !tbaa !66
  call void @llvm.lifetime.start.p0(i64 4, ptr %7) #9
  store i32 -110, ptr %7, align 4, !tbaa !12
  %8 = load ptr, ptr %4, align 8, !tbaa !35
  %9 = load ptr, ptr %5, align 8, !tbaa !8
  %10 = load ptr, ptr %6, align 8, !tbaa !66
  %11 = call i32 @mbedtls_asn1_get_int(ptr noundef %8, ptr noundef %9, ptr noundef %10)
  store i32 %11, ptr %7, align 4, !tbaa !12
  %12 = load i32, ptr %7, align 4, !tbaa !12
  %13 = icmp ne i32 %12, 0
  br i1 %13, label %14, label %17

14:                                               ; preds = %3
  %15 = load i32, ptr %7, align 4, !tbaa !12
  %16 = call i32 @mbedtls_error_add(i32 noundef -21504, i32 noundef %15, ptr noundef @.str, i32 noundef 67)
  store i32 %16, ptr %7, align 4, !tbaa !12
  br label %17

17:                                               ; preds = %14, %3
  %18 = load ptr, ptr %6, align 8, !tbaa !66
  %19 = load i32, ptr %18, align 4, !tbaa !12
  %20 = icmp ne i32 %19, 1
  br i1 %20, label %21, label %22

21:                                               ; preds = %17
  store i32 -21504, ptr %7, align 4, !tbaa !12
  br label %22

22:                                               ; preds = %21, %17
  %23 = load i32, ptr %7, align 4, !tbaa !12
  call void @llvm.lifetime.end.p0(i64 4, ptr %7) #9
  ret i32 %23
}

; Function Attrs: nounwind uwtable
define internal i32 @pkcs7_get_signer_info(ptr noundef %0, ptr noundef %1, ptr noundef %2, ptr noundef %3) #0 {
  %5 = alloca ptr, align 8
  %6 = alloca ptr, align 8
  %7 = alloca ptr, align 8
  %8 = alloca ptr, align 8
  %9 = alloca ptr, align 8
  %10 = alloca ptr, align 8
  %11 = alloca i32, align 4
  %12 = alloca i32, align 4
  %13 = alloca i64, align 8
  store ptr %0, ptr %5, align 8, !tbaa !35
  store ptr %1, ptr %6, align 8, !tbaa !8
  store ptr %2, ptr %7, align 8, !tbaa !48
  store ptr %3, ptr %8, align 8, !tbaa !68
  call void @llvm.lifetime.start.p0(i64 8, ptr %9) #9
  call void @llvm.lifetime.start.p0(i64 8, ptr %10) #9
  call void @llvm.lifetime.start.p0(i64 4, ptr %11) #9
  store i32 0, ptr %11, align 4, !tbaa !12
  call void @llvm.lifetime.start.p0(i64 4, ptr %12) #9
  store i32 -110, ptr %12, align 4, !tbaa !12
  call void @llvm.lifetime.start.p0(i64 8, ptr %13) #9
  store i64 0, ptr %13, align 8, !tbaa !10
  %14 = load ptr, ptr %5, align 8, !tbaa !35
  %15 = load ptr, ptr %6, align 8, !tbaa !8
  %16 = call i32 @mbedtls_asn1_get_tag(ptr noundef %14, ptr noundef %15, ptr noundef %13, i32 noundef 48)
  store i32 %16, ptr %11, align 4, !tbaa !12
  %17 = load i32, ptr %11, align 4, !tbaa !12
  %18 = icmp ne i32 %17, 0
  br i1 %18, label %19, label %20

19:                                               ; preds = %4
  br label %161

20:                                               ; preds = %4
  %21 = load ptr, ptr %5, align 8, !tbaa !35
  %22 = load ptr, ptr %21, align 8, !tbaa !8
  %23 = load i64, ptr %13, align 8, !tbaa !10
  %24 = getelementptr inbounds nuw i8, ptr %22, i64 %23
  store ptr %24, ptr %9, align 8, !tbaa !8
  %25 = load ptr, ptr %5, align 8, !tbaa !35
  %26 = load ptr, ptr %9, align 8, !tbaa !8
  %27 = load ptr, ptr %7, align 8, !tbaa !48
  %28 = getelementptr inbounds nuw %struct.mbedtls_pkcs7_signer_info, ptr %27, i32 0, i32 0
  %29 = call i32 @pkcs7_get_version(ptr noundef %25, ptr noundef %26, ptr noundef %28)
  store i32 %29, ptr %12, align 4, !tbaa !12
  %30 = load i32, ptr %12, align 4, !tbaa !12
  %31 = icmp ne i32 %30, 0
  br i1 %31, label %32, label %33

32:                                               ; preds = %20
  br label %161

33:                                               ; preds = %20
  %34 = load ptr, ptr %5, align 8, !tbaa !35
  %35 = load ptr, ptr %9, align 8, !tbaa !8
  %36 = call i32 @mbedtls_asn1_get_tag(ptr noundef %34, ptr noundef %35, ptr noundef %13, i32 noundef 48)
  store i32 %36, ptr %11, align 4, !tbaa !12
  %37 = load i32, ptr %11, align 4, !tbaa !12
  %38 = icmp ne i32 %37, 0
  br i1 %38, label %39, label %40

39:                                               ; preds = %33
  br label %161

40:                                               ; preds = %33
  %41 = load ptr, ptr %5, align 8, !tbaa !35
  %42 = load ptr, ptr %41, align 8, !tbaa !8
  %43 = load i64, ptr %13, align 8, !tbaa !10
  %44 = getelementptr inbounds nuw i8, ptr %42, i64 %43
  store ptr %44, ptr %10, align 8, !tbaa !8
  %45 = load ptr, ptr %5, align 8, !tbaa !35
  %46 = load ptr, ptr %45, align 8, !tbaa !8
  %47 = load ptr, ptr %7, align 8, !tbaa !48
  %48 = getelementptr inbounds nuw %struct.mbedtls_pkcs7_signer_info, ptr %47, i32 0, i32 3
  %49 = getelementptr inbounds nuw %struct.mbedtls_asn1_buf, ptr %48, i32 0, i32 2
  store ptr %46, ptr %49, align 8, !tbaa !73
  %50 = load ptr, ptr %5, align 8, !tbaa !35
  %51 = load ptr, ptr %10, align 8, !tbaa !8
  %52 = call i32 @mbedtls_asn1_get_tag(ptr noundef %50, ptr noundef %51, ptr noundef %13, i32 noundef 48)
  store i32 %52, ptr %11, align 4, !tbaa !12
  %53 = load i32, ptr %11, align 4, !tbaa !12
  %54 = icmp ne i32 %53, 0
  br i1 %54, label %55, label %56

55:                                               ; preds = %40
  br label %161

56:                                               ; preds = %40
  %57 = load ptr, ptr %5, align 8, !tbaa !35
  %58 = load ptr, ptr %5, align 8, !tbaa !35
  %59 = load ptr, ptr %58, align 8, !tbaa !8
  %60 = load i64, ptr %13, align 8, !tbaa !10
  %61 = getelementptr inbounds nuw i8, ptr %59, i64 %60
  %62 = load ptr, ptr %7, align 8, !tbaa !48
  %63 = getelementptr inbounds nuw %struct.mbedtls_pkcs7_signer_info, ptr %62, i32 0, i32 2
  %64 = call i32 @mbedtls_x509_get_name(ptr noundef %57, ptr noundef %61, ptr noundef %63)
  store i32 %64, ptr %12, align 4, !tbaa !12
  %65 = load i32, ptr %12, align 4, !tbaa !12
  %66 = icmp ne i32 %65, 0
  br i1 %66, label %67, label %68

67:                                               ; preds = %56
  br label %161

68:                                               ; preds = %56
  %69 = load ptr, ptr %5, align 8, !tbaa !35
  %70 = load ptr, ptr %69, align 8, !tbaa !8
  %71 = load ptr, ptr %7, align 8, !tbaa !48
  %72 = getelementptr inbounds nuw %struct.mbedtls_pkcs7_signer_info, ptr %71, i32 0, i32 3
  %73 = getelementptr inbounds nuw %struct.mbedtls_asn1_buf, ptr %72, i32 0, i32 2
  %74 = load ptr, ptr %73, align 8, !tbaa !73
  %75 = ptrtoint ptr %70 to i64
  %76 = ptrtoint ptr %74 to i64
  %77 = sub i64 %75, %76
  %78 = load ptr, ptr %7, align 8, !tbaa !48
  %79 = getelementptr inbounds nuw %struct.mbedtls_pkcs7_signer_info, ptr %78, i32 0, i32 3
  %80 = getelementptr inbounds nuw %struct.mbedtls_asn1_buf, ptr %79, i32 0, i32 1
  store i64 %77, ptr %80, align 8, !tbaa !74
  %81 = load ptr, ptr %5, align 8, !tbaa !35
  %82 = load ptr, ptr %10, align 8, !tbaa !8
  %83 = load ptr, ptr %7, align 8, !tbaa !48
  %84 = getelementptr inbounds nuw %struct.mbedtls_pkcs7_signer_info, ptr %83, i32 0, i32 1
  %85 = call i32 @mbedtls_x509_get_serial(ptr noundef %81, ptr noundef %82, ptr noundef %84)
  store i32 %85, ptr %12, align 4, !tbaa !12
  %86 = load i32, ptr %12, align 4, !tbaa !12
  %87 = icmp ne i32 %86, 0
  br i1 %87, label %88, label %89

88:                                               ; preds = %68
  br label %161

89:                                               ; preds = %68
  %90 = load ptr, ptr %5, align 8, !tbaa !35
  %91 = load ptr, ptr %90, align 8, !tbaa !8
  %92 = load ptr, ptr %10, align 8, !tbaa !8
  %93 = icmp ne ptr %91, %92
  br i1 %93, label %94, label %95

94:                                               ; preds = %89
  store i32 -22144, ptr %12, align 4, !tbaa !12
  br label %161

95:                                               ; preds = %89
  %96 = load ptr, ptr %5, align 8, !tbaa !35
  %97 = load ptr, ptr %9, align 8, !tbaa !8
  %98 = load ptr, ptr %7, align 8, !tbaa !48
  %99 = getelementptr inbounds nuw %struct.mbedtls_pkcs7_signer_info, ptr %98, i32 0, i32 4
  %100 = call i32 @pkcs7_get_digest_algorithm(ptr noundef %96, ptr noundef %97, ptr noundef %99)
  store i32 %100, ptr %12, align 4, !tbaa !12
  %101 = load i32, ptr %12, align 4, !tbaa !12
  %102 = icmp ne i32 %101, 0
  br i1 %102, label %103, label %104

103:                                              ; preds = %95
  br label %161

104:                                              ; preds = %95
  %105 = load ptr, ptr %7, align 8, !tbaa !48
  %106 = getelementptr inbounds nuw %struct.mbedtls_pkcs7_signer_info, ptr %105, i32 0, i32 4
  %107 = getelementptr inbounds nuw %struct.mbedtls_asn1_buf, ptr %106, i32 0, i32 0
  %108 = load i32, ptr %107, align 8, !tbaa !75
  %109 = load ptr, ptr %8, align 8, !tbaa !68
  %110 = getelementptr inbounds nuw %struct.mbedtls_asn1_buf, ptr %109, i32 0, i32 0
  %111 = load i32, ptr %110, align 8, !tbaa !70
  %112 = icmp ne i32 %108, %111
  br i1 %112, label %135, label %113

113:                                              ; preds = %104
  %114 = load ptr, ptr %7, align 8, !tbaa !48
  %115 = getelementptr inbounds nuw %struct.mbedtls_pkcs7_signer_info, ptr %114, i32 0, i32 4
  %116 = getelementptr inbounds nuw %struct.mbedtls_asn1_buf, ptr %115, i32 0, i32 1
  %117 = load i64, ptr %116, align 8, !tbaa !76
  %118 = load ptr, ptr %8, align 8, !tbaa !68
  %119 = getelementptr inbounds nuw %struct.mbedtls_asn1_buf, ptr %118, i32 0, i32 1
  %120 = load i64, ptr %119, align 8, !tbaa !42
  %121 = icmp ne i64 %117, %120
  br i1 %121, label %135, label %122

122:                                              ; preds = %113
  %123 = load ptr, ptr %7, align 8, !tbaa !48
  %124 = getelementptr inbounds nuw %struct.mbedtls_pkcs7_signer_info, ptr %123, i32 0, i32 4
  %125 = getelementptr inbounds nuw %struct.mbedtls_asn1_buf, ptr %124, i32 0, i32 2
  %126 = load ptr, ptr %125, align 8, !tbaa !77
  %127 = load ptr, ptr %8, align 8, !tbaa !68
  %128 = getelementptr inbounds nuw %struct.mbedtls_asn1_buf, ptr %127, i32 0, i32 2
  %129 = load ptr, ptr %128, align 8, !tbaa !43
  %130 = load ptr, ptr %8, align 8, !tbaa !68
  %131 = getelementptr inbounds nuw %struct.mbedtls_asn1_buf, ptr %130, i32 0, i32 1
  %132 = load i64, ptr %131, align 8, !tbaa !42
  %133 = call i32 @memcmp(ptr noundef %126, ptr noundef %129, i64 noundef %132) #11
  %134 = icmp ne i32 %133, 0
  br i1 %134, label %135, label %136

135:                                              ; preds = %122, %113, %104
  store i32 -22144, ptr %12, align 4, !tbaa !12
  br label %161

136:                                              ; preds = %122
  %137 = load ptr, ptr %5, align 8, !tbaa !35
  %138 = load ptr, ptr %9, align 8, !tbaa !8
  %139 = load ptr, ptr %7, align 8, !tbaa !48
  %140 = getelementptr inbounds nuw %struct.mbedtls_pkcs7_signer_info, ptr %139, i32 0, i32 5
  %141 = call i32 @pkcs7_get_digest_algorithm(ptr noundef %137, ptr noundef %138, ptr noundef %140)
  store i32 %141, ptr %12, align 4, !tbaa !12
  %142 = load i32, ptr %12, align 4, !tbaa !12
  %143 = icmp ne i32 %142, 0
  br i1 %143, label %144, label %145

144:                                              ; preds = %136
  br label %161

145:                                              ; preds = %136
  %146 = load ptr, ptr %5, align 8, !tbaa !35
  %147 = load ptr, ptr %9, align 8, !tbaa !8
  %148 = load ptr, ptr %7, align 8, !tbaa !48
  %149 = getelementptr inbounds nuw %struct.mbedtls_pkcs7_signer_info, ptr %148, i32 0, i32 6
  %150 = call i32 @pkcs7_get_signature(ptr noundef %146, ptr noundef %147, ptr noundef %149)
  store i32 %150, ptr %12, align 4, !tbaa !12
  %151 = load i32, ptr %12, align 4, !tbaa !12
  %152 = icmp ne i32 %151, 0
  br i1 %152, label %153, label %154

153:                                              ; preds = %145
  br label %161

154:                                              ; preds = %145
  %155 = load ptr, ptr %5, align 8, !tbaa !35
  %156 = load ptr, ptr %155, align 8, !tbaa !8
  %157 = load ptr, ptr %9, align 8, !tbaa !8
  %158 = icmp ne ptr %156, %157
  br i1 %158, label %159, label %160

159:                                              ; preds = %154
  store i32 -22144, ptr %12, align 4, !tbaa !12
  br label %160

160:                                              ; preds = %159, %154
  br label %161

161:                                              ; preds = %160, %153, %144, %135, %103, %94, %88, %67, %55, %39, %32, %19
  %162 = load i32, ptr %11, align 4, !tbaa !12
  %163 = icmp ne i32 %162, 0
  br i1 %163, label %167, label %164

164:                                              ; preds = %161
  %165 = load i32, ptr %12, align 4, !tbaa !12
  %166 = icmp ne i32 %165, 0
  br i1 %166, label %167, label %171

167:                                              ; preds = %164, %161
  %168 = load ptr, ptr %7, align 8, !tbaa !48
  call void @pkcs7_free_signer_info(ptr noundef %168)
  %169 = load i32, ptr %11, align 4, !tbaa !12
  %170 = call i32 @mbedtls_error_add(i32 noundef -22144, i32 noundef %169, ptr noundef @.str, i32 noundef 365)
  store i32 %170, ptr %12, align 4, !tbaa !12
  br label %171

171:                                              ; preds = %167, %164
  %172 = load i32, ptr %12, align 4, !tbaa !12
  call void @llvm.lifetime.end.p0(i64 8, ptr %13) #9
  call void @llvm.lifetime.end.p0(i64 4, ptr %12) #9
  call void @llvm.lifetime.end.p0(i64 4, ptr %11) #9
  call void @llvm.lifetime.end.p0(i64 8, ptr %10) #9
  call void @llvm.lifetime.end.p0(i64 8, ptr %9) #9
  ret i32 %172
}