; Function Attrs: nounwind uwtable
define internal fastcc range(i32 -2147483648, 2147461504) i32 @pkcs7_get_signer_info(ptr noundef nonnull %0, ptr noundef %1, ptr noundef nonnull %2, ptr noundef nonnull readonly captures(none) %3) unnamed_addr #2 {
  %5 = alloca i64, align 8
  call void @llvm.lifetime.start.p0(i64 8, ptr nonnull %5) #9
  store i64 0, ptr %5, align 8, !tbaa !3
  %6 = call i32 @mbedtls_asn1_get_tag(ptr noundef nonnull %0, ptr noundef %1, ptr noundef nonnull %5, i32 noundef 48) #9
  %.not = icmp eq i32 %6, 0
  br i1 %.not, label %7, label %.thread

7:                                                ; preds = %4
  %8 = load ptr, ptr %0, align 8, !tbaa !7
  %9 = load i64, ptr %5, align 8, !tbaa !3
  %10 = getelementptr inbounds nuw i8, ptr %8, i64 %9
  %11 = call i32 @mbedtls_asn1_get_int(ptr noundef nonnull %0, ptr noundef %10, ptr noundef nonnull %2) #9
  %.not.i = icmp eq i32 %11, 0
  %12 = load i32, ptr %2, align 4, !tbaa !32
  %.not8.i = icmp eq i32 %12, 1
  %.not719495 = icmp eq i32 %11, 21504
  %.not7194 = or i1 %.not.i, %.not719495
  %.not71 = select i1 %.not8.i, i1 %.not7194, i1 false
  br i1 %.not71, label %13, label %.thread

13:                                               ; preds = %7
  %14 = call i32 @mbedtls_asn1_get_tag(ptr noundef nonnull %0, ptr noundef %10, ptr noundef nonnull %5, i32 noundef 48) #9
  %.not72 = icmp eq i32 %14, 0
  br i1 %.not72, label %15, label %.thread

15:                                               ; preds = %13
  %16 = load ptr, ptr %0, align 8, !tbaa !7
  %17 = load i64, ptr %5, align 8, !tbaa !3
  %18 = getelementptr inbounds nuw i8, ptr %16, i64 %17
  %19 = getelementptr inbounds nuw i8, ptr %2, i64 112
  store ptr %16, ptr %19, align 8, !tbaa !54
  %20 = call i32 @mbedtls_asn1_get_tag(ptr noundef nonnull %0, ptr noundef %18, ptr noundef nonnull %5, i32 noundef 48) #9
  %.not73 = icmp eq i32 %20, 0
  br i1 %.not73, label %21, label %.thread

21:                                               ; preds = %15
  %22 = load ptr, ptr %0, align 8, !tbaa !7
  %23 = load i64, ptr %5, align 8, !tbaa !3
  %24 = getelementptr inbounds nuw i8, ptr %22, i64 %23
  %25 = getelementptr inbounds nuw i8, ptr %2, i64 32
  %26 = call i32 @mbedtls_x509_get_name(ptr noundef nonnull %0, ptr noundef %24, ptr noundef nonnull %25) #9
  %.not74 = icmp eq i32 %26, 0
  br i1 %.not74, label %27, label %.thread

27:                                               ; preds = %21
  %28 = load ptr, ptr %0, align 8, !tbaa !7
  %29 = load ptr, ptr %19, align 8, !tbaa !54
  %30 = ptrtoint ptr %28 to i64
  %31 = ptrtoint ptr %29 to i64
  %32 = sub i64 %30, %31
  %33 = getelementptr inbounds nuw i8, ptr %2, i64 104
  store i64 %32, ptr %33, align 8, !tbaa !55
  %34 = getelementptr inbounds nuw i8, ptr %2, i64 8
  %35 = call i32 @mbedtls_x509_get_serial(ptr noundef nonnull %0, ptr noundef %18, ptr noundef nonnull %34) #9
  %.not75 = icmp eq i32 %35, 0
  br i1 %.not75, label %36, label %.thread

36:                                               ; preds = %27
  %37 = load ptr, ptr %0, align 8, !tbaa !7
  %.not76 = icmp eq ptr %37, %18
  br i1 %.not76, label %38, label %.thread

38:                                               ; preds = %36
  %39 = getelementptr inbounds nuw i8, ptr %2, i64 120
  %40 = call i32 @mbedtls_asn1_get_alg_null(ptr noundef nonnull %0, ptr noundef %10, ptr noundef nonnull %39) #9
  switch i32 %40, label %.thread [
    i32 21760, label %41
    i32 0, label %41
  ]

41:                                               ; preds = %38, %38
  %42 = load i32, ptr %39, align 8, !tbaa !56
  %43 = load i32, ptr %3, align 8, !tbaa !52
  %.not78 = icmp eq i32 %42, %43
  br i1 %.not78, label %44, label %.thread

44:                                               ; preds = %41
  %45 = getelementptr inbounds nuw i8, ptr %2, i64 128
  %46 = load i64, ptr %45, align 8, !tbaa !57
  %47 = getelementptr inbounds nuw i8, ptr %3, i64 8
  %48 = load i64, ptr %47, align 8, !tbaa !33
  %.not79 = icmp eq i64 %46, %48
  br i1 %.not79, label %49, label %.thread

49:                                               ; preds = %44
  %50 = getelementptr inbounds nuw i8, ptr %2, i64 136
  %51 = load ptr, ptr %50, align 8, !tbaa !58
  %52 = getelementptr inbounds nuw i8, ptr %3, i64 16
  %53 = load ptr, ptr %52, align 8, !tbaa !34
  %bcmp = call i32 @bcmp(ptr %51, ptr %53, i64 %46)
  %.not80 = icmp eq i32 %bcmp, 0
  br i1 %.not80, label %54, label %.thread

54:                                               ; preds = %49
  %55 = getelementptr inbounds nuw i8, ptr %2, i64 144
  %56 = call i32 @mbedtls_asn1_get_alg_null(ptr noundef nonnull %0, ptr noundef %10, ptr noundef nonnull %55) #9
  switch i32 %56, label %.thread [
    i32 21760, label %57
    i32 0, label %57
  ]

57:                                               ; preds = %54, %54
  %58 = getelementptr inbounds nuw i8, ptr %2, i64 168
  %59 = call fastcc i32 @pkcs7_get_signature(ptr noundef %0, ptr noundef %10, ptr noundef %58)
  %.not82 = icmp eq i32 %59, 0
  br i1 %.not82, label %60, label %.thread

60:                                               ; preds = %57
  %61 = load ptr, ptr %0, align 8, !tbaa !7
  %.not83.not = icmp eq ptr %61, %10
  br i1 %.not83.not, label %67, label %.thread

.thread:                                          ; preds = %54, %38, %41, %44, %49, %36, %57, %27, %21, %7, %15, %13, %4, %60
  %.05693 = phi i32 [ 0, %60 ], [ 0, %41 ], [ 0, %44 ], [ 0, %49 ], [ 0, %36 ], [ 0, %57 ], [ 0, %54 ], [ 0, %38 ], [ 0, %27 ], [ 0, %21 ], [ %20, %15 ], [ %14, %13 ], [ 0, %7 ], [ %6, %4 ]
  %62 = getelementptr inbounds nuw i8, ptr %2, i64 80
  %63 = load ptr, ptr %62, align 8, !tbaa !39
  %.not8.i88 = icmp eq ptr %63, null
  br i1 %.not8.i88, label %pkcs7_free_signer_info.exit, label %.lr.ph.i

.lr.ph.i:                                         ; preds = %.thread, %.lr.ph.i
  %.09.i = phi ptr [ %65, %.lr.ph.i ], [ %63, %.thread ]
  %64 = getelementptr inbounds nuw i8, ptr %.09.i, i64 48
  %65 = load ptr, ptr %64, align 8, !tbaa !40
  call void @free(ptr noundef nonnull %.09.i) #9
  %.not.i89 = icmp eq ptr %65, null
  br i1 %.not.i89, label %pkcs7_free_signer_info.exit, label %.lr.ph.i, !llvm.loop !41

pkcs7_free_signer_info.exit:                      ; preds = %.lr.ph.i, %.thread
  store ptr null, ptr %62, align 8, !tbaa !39
  %66 = add nsw i32 %.05693, -22144
  br label %67

67:                                               ; preds = %60, %pkcs7_free_signer_info.exit
  %.1 = phi i32 [ %66, %pkcs7_free_signer_info.exit ], [ 0, %60 ]
  call void @llvm.lifetime.end.p0(i64 8, ptr nonnull %5) #9
  ret i32 %.1
}